; Function Attrs: mustprogress uwtable
define void @_ZN7rocksdb38NotifyCollectTableCollectorsOnBlockAddERKSt6vectorISt10unique_ptrINS_19IntTblPropCollectorESt14default_deleteIS2_EESaIS5_EEmmm(ptr nocapture noundef nonnull readonly align 8 dereferenceable(24) %collectors, i64 noundef %block_uncomp_bytes, i64 noundef %block_compressed_bytes_fast, i64 noundef %block_compressed_bytes_slow) local_unnamed_addr #3 {
entry:
  %0 = load ptr, ptr %collectors, align 8
  %_M_finish.i = getelementptr inbounds i8, ptr %collectors, i64 8
  %1 = load ptr, ptr %_M_finish.i, align 8
  %cmp.i.not4 = icmp eq ptr %0, %1
  br i1 %cmp.i.not4, label %for.end, label %for.body

for.body:                                         ; preds = %entry, %for.body
  %__begin1.sroa.0.05 = phi ptr [ %incdec.ptr.i, %for.body ], [ %0, %entry ]
  %2 = load ptr, ptr %__begin1.sroa.0.05, align 8
  %vtable = load ptr, ptr %2, align 8
  %vfn = getelementptr inbounds i8, ptr %vtable, i64 40
  %3 = load ptr, ptr %vfn, align 8
  tail call void %3(ptr noundef nonnull align 8 dereferenceable(8) %2, i64 noundef %block_uncomp_bytes, i64 noundef %block_compressed_bytes_fast, i64 noundef %block_compressed_bytes_slow)
  %incdec.ptr.i = getelementptr inbounds i8, ptr %__begin1.sroa.0.05, i64 8
  %cmp.i.not = icmp eq ptr %incdec.ptr.i, %1
  br i1 %cmp.i.not, label %for.end, label %for.body

for.end:                                          ; preds = %for.body, %entry
  ret void
}